target datalayout = "e-m:e-p270:32:32-p271:32:32-p272:64:64-i64:64-i128:128-f80:128-n8:16:32:64-S128"
target triple = "x86_64-pc-linux-gnu"

%class.Pipeline_Use = type { i32, i32, i32, ptr }
%class.Pipeline_Use_Element = type { i32, i32, i32, i8, %class.Pipeline_Use_Cycle_Mask }
%class.Pipeline_Use_Cycle_Mask = type { i32 }

; Function Attrs: mustprogress nounwind uwtable
define linkonce_odr hidden noundef zeroext i1 @_ZNK23Pipeline_Use_Cycle_Mask8overlapsERKS_(ptr noundef nonnull align 4 dereferenceable(4) %0, ptr noundef nonnull align 4 dereferenceable(4) %1) #1 comdat align 2 {
  %3 = alloca ptr, align 8
  %4 = alloca ptr, align 8
  store ptr %0, ptr %3, align 8
  store ptr %1, ptr %4, align 8
  %5 = load ptr, ptr %3, align 8
  %6 = getelementptr inbounds %class.Pipeline_Use_Cycle_Mask, ptr %5, i32 0, i32 0
  %7 = load i32, ptr %6, align 4
  %8 = load ptr, ptr %4, align 8
  %9 = getelementptr inbounds %class.Pipeline_Use_Cycle_Mask, ptr %8, i32 0, i32 0
  %10 = load i32, ptr %9, align 4
  %11 = and i32 %7, %10
  %12 = icmp ne i32 %11, 0
  ret i1 %12
}

; Function Attrs: mustprogress nounwind uwtable
define linkonce_odr hidden noundef nonnull align 4 dereferenceable(4) ptr @_ZN23Pipeline_Use_Cycle_MasklSEi(ptr noundef nonnull align 4 dereferenceable(4) %0, i32 noundef %1) #1 comdat align 2 {
  %3 = alloca ptr, align 8
  %4 = alloca i32, align 4
  store ptr %0, ptr %3, align 8
  store i32 %1, ptr %4, align 4
  %5 = load ptr, ptr %3, align 8
  %6 = load i32, ptr %4, align 4
  %7 = getelementptr inbounds %class.Pipeline_Use_Cycle_Mask, ptr %5, i32 0, i32 0
  %8 = load i32, ptr %7, align 4
  %9 = shl i32 %8, %6
  store i32 %9, ptr %7, align 4
  ret ptr %5
}

; Function Attrs: mustprogress nounwind uwtable
define linkonce_odr hidden noundef ptr @_ZNK12Pipeline_Use7elementEj(ptr noundef nonnull align 8 dereferenceable(24) %0, i32 noundef %1) #1 comdat align 2 {
  %3 = alloca ptr, align 8
  %4 = alloca i32, align 4
  store ptr %0, ptr %3, align 8
  store i32 %1, ptr %4, align 4
  %5 = load ptr, ptr %3, align 8
  %6 = getelementptr inbounds %class.Pipeline_Use, ptr %5, i32 0, i32 3
  %7 = load ptr, ptr %6, align 8
  %8 = load i32, ptr %4, align 4
  %9 = zext i32 %8 to i64
  %10 = getelementptr inbounds %class.Pipeline_Use_Element, ptr %7, i64 %9
  ret ptr %10
}

; Function Attrs: mustprogress nounwind uwtable
define hidden noundef i32 @_ZNK12Pipeline_Use12full_latencyEjRKS_(ptr noundef nonnull align 8 dereferenceable(24) %0, i32 noundef %1, ptr noundef nonnull align 8 dereferenceable(24) %2) #1 align 2 {
  %4 = alloca ptr, align 8
  %5 = alloca i32, align 4
  %6 = alloca ptr, align 8
  %7 = alloca i32, align 4
  %8 = alloca ptr, align 8
  %9 = alloca i32, align 4
  %10 = alloca i32, align 4
  %11 = alloca ptr, align 8
  %12 = alloca i32, align 4
  %13 = alloca %class.Pipeline_Use_Cycle_Mask, align 4
  %14 = alloca %class.Pipeline_Use_Cycle_Mask, align 4
  %15 = alloca i32, align 4
  %16 = alloca ptr, align 8
  %17 = alloca %class.Pipeline_Use_Cycle_Mask, align 4
  %18 = alloca %class.Pipeline_Use_Cycle_Mask, align 4
  store ptr %0, ptr %4, align 8
  store i32 %1, ptr %5, align 4
  store ptr %2, ptr %6, align 8
  %19 = load ptr, ptr %4, align 8
  store i32 0, ptr %7, align 4
  br label %20

20:                                               ; preds = %130, %3
  %21 = load i32, ptr %7, align 4
  %22 = load ptr, ptr %6, align 8
  %23 = getelementptr inbounds %class.Pipeline_Use, ptr %22, i32 0, i32 2
  %24 = load i32, ptr %23, align 8
  %25 = icmp ult i32 %21, %24
  br i1 %25, label %26, label %133

26:                                               ; preds = %20
  %27 = load ptr, ptr %6, align 8
  %28 = load i32, ptr %7, align 4
  %29 = call noundef ptr @_ZNK12Pipeline_Use7elementEj(ptr noundef nonnull align 8 dereferenceable(24) %27, i32 noundef %28)
  store ptr %29, ptr %8, align 8
  %30 = load ptr, ptr %8, align 8
  %31 = getelementptr inbounds %class.Pipeline_Use_Element, ptr %30, i32 0, i32 3
  %32 = load i8, ptr %31, align 4
  %33 = trunc i8 %32 to i1
  br i1 %33, label %34, label %88

34:                                               ; preds = %26
  store i32 7, ptr %9, align 4
  %35 = load ptr, ptr %8, align 8
  %36 = getelementptr inbounds %class.Pipeline_Use_Element, ptr %35, i32 0, i32 1
  %37 = load i32, ptr %36, align 4
  store i32 %37, ptr %10, align 4
  br label %38

38:                                               ; preds = %78, %34
  %39 = load i32, ptr %10, align 4
  %40 = load ptr, ptr %8, align 8
  %41 = getelementptr inbounds %class.Pipeline_Use_Element, ptr %40, i32 0, i32 2
  %42 = load i32, ptr %41, align 4
  %43 = icmp ule i32 %39, %42
  br i1 %43, label %44, label %81

44:                                               ; preds = %38
  %45 = load i32, ptr %10, align 4
  %46 = call noundef ptr @_ZNK12Pipeline_Use7elementEj(ptr noundef nonnull align 8 dereferenceable(24) %19, i32 noundef %45)
  store ptr %46, ptr %11, align 8
  %47 = load i32, ptr %5, align 4
  store i32 %47, ptr %12, align 4
  %48 = load ptr, ptr %8, align 8
  %49 = getelementptr inbounds %class.Pipeline_Use_Element, ptr %48, i32 0, i32 0
  %50 = load i32, ptr %49, align 4
  %51 = load ptr, ptr %11, align 8
  %52 = getelementptr inbounds %class.Pipeline_Use_Element, ptr %51, i32 0, i32 0
  %53 = load i32, ptr %52, align 4
  %54 = and i32 %50, %53
  %55 = icmp ne i32 %54, 0
  br i1 %55, label %56, label %71

56:                                               ; preds = %44
  %57 = load ptr, ptr %8, align 8
  %58 = getelementptr inbounds %class.Pipeline_Use_Element, ptr %57, i32 0, i32 4
  call void @llvm.memcpy.p0.p0.i64(ptr align 4 %13, ptr align 4 %58, i64 4, i1 false)
  %59 = load ptr, ptr %11, align 8
  %60 = getelementptr inbounds %class.Pipeline_Use_Element, ptr %59, i32 0, i32 4
  call void @llvm.memcpy.p0.p0.i64(ptr align 4 %14, ptr align 4 %60, i64 4, i1 false)
  %61 = load i32, ptr %12, align 4
  %62 = call noundef nonnull align 4 dereferenceable(4) ptr @_ZN23Pipeline_Use_Cycle_MasklSEi(ptr noundef nonnull align 4 dereferenceable(4) %14, i32 noundef %61)
  br label %63

63:                                               ; preds = %67, %56
  %64 = call noundef zeroext i1 @_ZNK23Pipeline_Use_Cycle_Mask8overlapsERKS_(ptr noundef nonnull align 4 dereferenceable(4) %13, ptr noundef nonnull align 4 dereferenceable(4) %14)
  br i1 %64, label %65, label %70

65:                                               ; preds = %63
  %66 = call noundef nonnull align 4 dereferenceable(4) ptr @_ZN23Pipeline_Use_Cycle_MasklSEi(ptr noundef nonnull align 4 dereferenceable(4) %14, i32 noundef 1)
  br label %67

67:                                               ; preds = %65
  %68 = load i32, ptr %12, align 4
  %69 = add i32 %68, 1
  store i32 %69, ptr %12, align 4
  br label %63, !llvm.loop !10

70:                                               ; preds = %63
  br label %71

71:                                               ; preds = %70, %44
  %72 = load i32, ptr %9, align 4
  %73 = load i32, ptr %12, align 4
  %74 = icmp ugt i32 %72, %73
  br i1 %74, label %75, label %77

75:                                               ; preds = %71
  %76 = load i32, ptr %12, align 4
  store i32 %76, ptr %9, align 4
  br label %77

77:                                               ; preds = %75, %71
  br label %78

78:                                               ; preds = %77
  %79 = load i32, ptr %10, align 4
  %80 = add i32 %79, 1
  store i32 %80, ptr %10, align 4
  br label %38, !llvm.loop !11

81:                                               ; preds = %38
  %82 = load i32, ptr %5, align 4
  %83 = load i32, ptr %9, align 4
  %84 = icmp ult i32 %82, %83
  br i1 %84, label %85, label %87

85:                                               ; preds = %81
  %86 = load i32, ptr %9, align 4
  store i32 %86, ptr %5, align 4
  br label %87

87:                                               ; preds = %85, %81
  br label %129

88:                                               ; preds = %26
  %89 = load ptr, ptr %8, align 8
  %90 = getelementptr inbounds %class.Pipeline_Use_Element, ptr %89, i32 0, i32 1
  %91 = load i32, ptr %90, align 4
  store i32 %91, ptr %15, align 4
  br label %92

92:                                               ; preds = %125, %88
  %93 = load i32, ptr %15, align 4
  %94 = load ptr, ptr %8, align 8
  %95 = getelementptr inbounds %class.Pipeline_Use_Element, ptr %94, i32 0, i32 2
  %96 = load i32, ptr %95, align 4
  %97 = icmp ule i32 %93, %96
  br i1 %97, label %98, label %128

98:                                               ; preds = %92
  %99 = load i32, ptr %15, align 4
  %100 = call noundef ptr @_ZNK12Pipeline_Use7elementEj(ptr noundef nonnull align 8 dereferenceable(24) %19, i32 noundef %99)
  store ptr %100, ptr %16, align 8
  %101 = load ptr, ptr %8, align 8
  %102 = getelementptr inbounds %class.Pipeline_Use_Element, ptr %101, i32 0, i32 0
  %103 = load i32, ptr %102, align 4
  %104 = load ptr, ptr %16, align 8
  %105 = getelementptr inbounds %class.Pipeline_Use_Element, ptr %104, i32 0, i32 0
  %106 = load i32, ptr %105, align 4
  %107 = and i32 %103, %106
  %108 = icmp ne i32 %107, 0
  br i1 %108, label %109, label %124

109:                                              ; preds = %98
  %110 = load ptr, ptr %8, align 8
  %111 = getelementptr inbounds %class.Pipeline_Use_Element, ptr %110, i32 0, i32 4
  call void @llvm.memcpy.p0.p0.i64(ptr align 4 %17, ptr align 4 %111, i64 4, i1 false)
  %112 = load ptr, ptr %16, align 8
  %113 = getelementptr inbounds %class.Pipeline_Use_Element, ptr %112, i32 0, i32 4
  call void @llvm.memcpy.p0.p0.i64(ptr align 4 %18, ptr align 4 %113, i64 4, i1 false)
  %114 = load i32, ptr %5, align 4
  %115 = call noundef nonnull align 4 dereferenceable(4) ptr @_ZN23Pipeline_Use_Cycle_MasklSEi(ptr noundef nonnull align 4 dereferenceable(4) %18, i32 noundef %114)
  br label %116

116:                                              ; preds = %120, %109
  %117 = call noundef zeroext i1 @_ZNK23Pipeline_Use_Cycle_Mask8overlapsERKS_(ptr noundef nonnull align 4 dereferenceable(4) %17, ptr noundef nonnull align 4 dereferenceable(4) %18)
  br i1 %117, label %118, label %123

118:                                              ; preds = %116
  %119 = call noundef nonnull align 4 dereferenceable(4) ptr @_ZN23Pipeline_Use_Cycle_MasklSEi(ptr noundef nonnull align 4 dereferenceable(4) %18, i32 noundef 1)
  br label %120

120:                                              ; preds = %118
  %121 = load i32, ptr %5, align 4
  %122 = add i32 %121, 1
  store i32 %122, ptr %5, align 4
  br label %116, !llvm.loop !12

123:                                              ; preds = %116
  br label %124

124:                                              ; preds = %123, %98
  br label %125

125:                                              ; preds = %124
  %126 = load i32, ptr %15, align 4
  %127 = add i32 %126, 1
  store i32 %127, ptr %15, align 4
  br label %92, !llvm.loop !13

128:                                              ; preds = %92
  br label %129

129:                                              ; preds = %128, %87
  br label %130

130:                                              ; preds = %129
  %131 = load i32, ptr %7, align 4
  %132 = add i32 %131, 1
  store i32 %132, ptr %7, align 4
  br label %20, !llvm.loop !14

133:                                              ; preds = %20
  %134 = load i32, ptr %5, align 4
  ret i32 %134
}