; Function Attrs: mustprogress nofree norecurse nosync nounwind willreturn memory(read, inaccessiblemem: none) uwtable
define hidden noundef i32 @_ZNK12Pipeline_Use12full_latencyEjRKS_(ptr nocapture noundef nonnull readonly align 8 dereferenceable(24) %0, i32 noundef %1, ptr nocapture noundef nonnull readonly align 8 dereferenceable(24) %2) local_unnamed_addr #0 align 2 {
  %4 = getelementptr inbounds i8, ptr %2, i64 8
  %5 = load i32, ptr %4, align 8
  %.not82 = icmp eq i32 %5, 0
  br i1 %.not82, label %._crit_edge80, label %.lr.ph79

.lr.ph79:                                         ; preds = %3
  %6 = getelementptr inbounds i8, ptr %2, i64 16
  %7 = load ptr, ptr %6, align 8
  %8 = getelementptr inbounds i8, ptr %0, i64 16
  %9 = load ptr, ptr %8, align 8
  %wide.trip.count = zext i32 %5 to i64
  br label %10

10:                                               ; preds = %.lr.ph79, %.loopexit57
  %indvars.iv = phi i64 [ 0, %.lr.ph79 ], [ %indvars.iv.next, %.loopexit57 ]
  %.077 = phi i32 [ %1, %.lr.ph79 ], [ %.4, %.loopexit57 ]
  %11 = getelementptr inbounds %class.Pipeline_Use_Element, ptr %7, i64 %indvars.iv
  %12 = getelementptr inbounds i8, ptr %11, i64 12
  %13 = load i8, ptr %12, align 4
  %14 = trunc i8 %13 to i1
  %15 = getelementptr inbounds i8, ptr %11, i64 4
  %16 = load i32, ptr %15, align 4
  %17 = getelementptr inbounds i8, ptr %11, i64 8
  %18 = load i32, ptr %17, align 4
  %.not4471 = icmp ugt i32 %16, %18
  br i1 %14, label %19, label %37

19:                                               ; preds = %10
  br i1 %.not4471, label %._crit_edge, label %.lr.ph74

.lr.ph74:                                         ; preds = %19
  %20 = load i32, ptr %11, align 4
  %21 = getelementptr inbounds i8, ptr %11, i64 16
  br label %22

22:                                               ; preds = %.lr.ph74, %.loopexit
  %.04073 = phi i32 [ %16, %.lr.ph74 ], [ %36, %.loopexit ]
  %.04172 = phi i32 [ 7, %.lr.ph74 ], [ %spec.select, %.loopexit ]
  %23 = zext i32 %.04073 to i64
  %24 = getelementptr inbounds %class.Pipeline_Use_Element, ptr %9, i64 %23
  %25 = load i32, ptr %24, align 4
  %26 = and i32 %25, %20
  %.not45 = icmp eq i32 %26, 0
  br i1 %.not45, label %.loopexit, label %27

27:                                               ; preds = %22
  %28 = load i32, ptr %21, align 4
  %29 = getelementptr inbounds i8, ptr %24, i64 16
  %30 = load i32, ptr %29, align 4
  %31 = shl i32 %30, %.077
  %32 = and i32 %31, %28
  %.not5566 = icmp eq i32 %32, 0
  br i1 %.not5566, label %.loopexit, label %.lr.ph69

.lr.ph69:                                         ; preds = %27, %.lr.ph69
  %.03768 = phi i32 [ %34, %.lr.ph69 ], [ %.077, %27 ]
  %.sroa.050.067 = phi i32 [ %33, %.lr.ph69 ], [ %31, %27 ]
  %33 = shl i32 %.sroa.050.067, 1
  %34 = add i32 %.03768, 1
  %35 = and i32 %33, %28
  %.not55 = icmp eq i32 %35, 0
  br i1 %.not55, label %.loopexit, label %.lr.ph69, !llvm.loop !10

.loopexit:                                        ; preds = %.lr.ph69, %27, %22
  %.138 = phi i32 [ %.077, %22 ], [ %.077, %27 ], [ %34, %.lr.ph69 ]
  %spec.select = tail call i32 @llvm.umin.i32(i32 %.04172, i32 %.138)
  %36 = add i32 %.04073, 1
  %.not44 = icmp ugt i32 %36, %18
  br i1 %.not44, label %._crit_edge, label %22, !llvm.loop !11

._crit_edge:                                      ; preds = %.loopexit, %19
  %.041.lcssa = phi i32 [ 7, %19 ], [ %spec.select, %.loopexit ]
  %spec.select46 = tail call i32 @llvm.umax.i32(i32 %.077, i32 %.041.lcssa)
  br label %.loopexit57

37:                                               ; preds = %10
  br i1 %.not4471, label %.loopexit57, label %.lr.ph64

.lr.ph64:                                         ; preds = %37
  %38 = load i32, ptr %11, align 4
  %39 = getelementptr inbounds i8, ptr %11, i64 16
  br label %40

40:                                               ; preds = %.lr.ph64, %.loopexit56
  %.163 = phi i32 [ %.077, %.lr.ph64 ], [ %.3, %.loopexit56 ]
  %.03662 = phi i32 [ %16, %.lr.ph64 ], [ %54, %.loopexit56 ]
  %41 = zext i32 %.03662 to i64
  %42 = getelementptr inbounds %class.Pipeline_Use_Element, ptr %9, i64 %41
  %43 = load i32, ptr %42, align 4
  %44 = and i32 %43, %38
  %.not43 = icmp eq i32 %44, 0
  br i1 %.not43, label %.loopexit56, label %45

45:                                               ; preds = %40
  %46 = load i32, ptr %39, align 4
  %47 = getelementptr inbounds i8, ptr %42, i64 16
  %48 = load i32, ptr %47, align 4
  %49 = shl i32 %48, %.163
  %50 = and i32 %49, %46
  %.not5458 = icmp eq i32 %50, 0
  br i1 %.not5458, label %.loopexit56, label %.lr.ph

.lr.ph:                                           ; preds = %45, %.lr.ph
  %.260 = phi i32 [ %52, %.lr.ph ], [ %.163, %45 ]
  %.sroa.0.059 = phi i32 [ %51, %.lr.ph ], [ %49, %45 ]
  %51 = shl i32 %.sroa.0.059, 1
  %52 = add i32 %.260, 1
  %53 = and i32 %51, %46
  %.not54 = icmp eq i32 %53, 0
  br i1 %.not54, label %.loopexit56, label %.lr.ph, !llvm.loop !12

.loopexit56:                                      ; preds = %.lr.ph, %45, %40
  %.3 = phi i32 [ %.163, %40 ], [ %.163, %45 ], [ %52, %.lr.ph ]
  %54 = add i32 %.03662, 1
  %.not = icmp ugt i32 %54, %18
  br i1 %.not, label %.loopexit57, label %40, !llvm.loop !13

.loopexit57:                                      ; preds = %.loopexit56, %37, %._crit_edge
  %.4 = phi i32 [ %spec.select46, %._crit_edge ], [ %.077, %37 ], [ %.3, %.loopexit56 ]
  %indvars.iv.next = add nuw nsw i64 %indvars.iv, 1
  %exitcond.not = icmp eq i64 %indvars.iv.next, %wide.trip.count
  br i1 %exitcond.not, label %._crit_edge80, label %10, !llvm.loop !14

._crit_edge80:                                    ; preds = %.loopexit57, %3
  %.0.lcssa = phi i32 [ %1, %3 ], [ %.4, %.loopexit57 ]
  ret i32 %.0.lcssa
}